; Function Attrs: nounwind uwtable
define void @b2Body_SetName(i64 %0, ptr noundef readonly captures(address_is_null) %1) local_unnamed_addr #0 {
  %.sroa.2.0.extract.shift = lshr i64 %0, 32
  %3 = trunc nuw i64 %.sroa.2.0.extract.shift to i32
  %4 = and i32 %3, 65535
  %5 = tail call ptr @b2GetWorld(i32 noundef %4) #10
  %6 = getelementptr inbounds nuw i8, ptr %5, i64 1032
  %.val.i = load ptr, ptr %6, align 8, !tbaa !10
  %7 = shl i64 %0, 32
  %sext.i = add i64 %7, -4294967296
  %8 = ashr exact i64 %sext.i, 25
  %9 = getelementptr inbounds i8, ptr %.val.i, i64 %8
  %.not = icmp eq ptr %1, null
  br i1 %.not, label %15, label %.preheader

10:                                               ; preds = %.preheader
  %11 = getelementptr inbounds nuw i8, ptr %9, i64 31
  store i8 0, ptr %11, align 1, !tbaa !122
  br label %16

.preheader:                                       ; preds = %2, %.preheader
  %indvars.iv = phi i64 [ %indvars.iv.next, %.preheader ], [ 0, %2 ]
  %12 = getelementptr inbounds nuw i8, ptr %1, i64 %indvars.iv
  %13 = load i8, ptr %12, align 1, !tbaa !122
  %14 = getelementptr inbounds nuw [32 x i8], ptr %9, i64 0, i64 %indvars.iv
  store i8 %13, ptr %14, align 1, !tbaa !122
  %indvars.iv.next = add nuw nsw i64 %indvars.iv, 1
  %exitcond.not = icmp eq i64 %indvars.iv.next, 31
  br i1 %exitcond.not, label %10, label %.preheader, !llvm.loop !212

15:                                               ; preds = %2
  tail call void @llvm.memset.p0.i64(ptr noundef nonnull align 8 dereferenceable(32) %9, i8 0, i64 32, i1 false)
  br label %16

16:                                               ; preds = %15, %10
  ret void
}